; Function Attrs: mustprogress uwtable
define noundef i64 @_ZNK8QuantLib24LiborForwardModelProcess7factorsEv(ptr nocapture noundef nonnull readonly align 8 dereferenceable(336) %this) unnamed_addr #6 align 2 {
entry:
  %lfmParam_ = getelementptr inbounds nuw i8, ptr %this, i64 152
  %0 = load ptr, ptr %lfmParam_, align 8, !tbaa !141
  %cmp.not.i = icmp eq ptr %0, null
  br i1 %cmp.not.i, label %cond.false.i, label %_ZNK5boost10shared_ptrIN8QuantLib29LfmCovarianceParameterizationEEptEv.exit, !prof !81

cond.false.i:                                     ; preds = %entry
  tail call void @_ZN5boost16assertion_failedEPKcS1_S1_l(ptr noundef nonnull @.str.12, ptr noundef nonnull @__PRETTY_FUNCTION__._ZNK5boost10shared_ptrIN8QuantLib29LfmCovarianceParameterizationEEptEv, ptr noundef nonnull @.str.13, i64 noundef 784)
  %.pre.i = load ptr, ptr %lfmParam_, align 8, !tbaa !141
  br label %_ZNK5boost10shared_ptrIN8QuantLib29LfmCovarianceParameterizationEEptEv.exit

_ZNK5boost10shared_ptrIN8QuantLib29LfmCovarianceParameterizationEEptEv.exit: ; preds = %entry, %cond.false.i
  %1 = phi ptr [ %0, %entry ], [ %.pre.i, %cond.false.i ]
  %factors_.i = getelementptr inbounds nuw i8, ptr %1, i64 16
  %2 = load i64, ptr %factors_.i, align 8, !tbaa !160
  ret i64 %2
}